; Function Attrs: mustprogress uwtable
define dso_local void @_ZNSt3__18ios_base33__set_badbit_and_consider_rethrowEv(ptr noundef nonnull align 8 captures(none) dereferenceable(136) %0) local_unnamed_addr #1 align 2 {
  %2 = getelementptr inbounds nuw i8, ptr %0, i64 32
  %3 = load i32, ptr %2, align 8, !tbaa !29
  %4 = or i32 %3, 1
  store i32 %4, ptr %2, align 8, !tbaa !29
  %5 = getelementptr inbounds nuw i8, ptr %0, i64 36
  %6 = load i32, ptr %5, align 4, !tbaa !30
  %7 = and i32 %6, 1
  %.not = icmp eq i32 %7, 0
  br i1 %.not, label %9, label %8

8:                                                ; preds = %1
  tail call void @__cxa_rethrow() #28
  unreachable

9:                                                ; preds = %1
  ret void
}